; Function Attrs: mustprogress uwtable
define hidden void @_ZN19OpenColorIO_v2_4dev14validateParamsERKNS_9CDLOpData13ChannelParamsES3_d(ptr nocapture noundef nonnull readonly align 8 dereferenceable(24) %slopeParams, ptr nocapture noundef nonnull readonly align 8 dereferenceable(24) %powerParams, double noundef %saturation) local_unnamed_addr #3 personality ptr @__gxx_personality_v0 {
entry:
  br label %_ZNK19OpenColorIO_v2_4dev9CDLOpData13ChannelParamsixEj.exit.i

_ZNK19OpenColorIO_v2_4dev9CDLOpData13ChannelParamsixEj.exit.i: ; preds = %_ZNK19OpenColorIO_v2_4dev9CDLOpData13ChannelParamsixEj.exit.i, %entry
  %indvars.iv.i = phi i64 [ 0, %entry ], [ %indvars.iv.next.i, %_ZNK19OpenColorIO_v2_4dev9CDLOpData13ChannelParamsixEj.exit.i ]
  %arrayidx.i.i = getelementptr inbounds [3 x double], ptr %slopeParams, i64 0, i64 %indvars.iv.i
  %0 = load double, ptr %arrayidx.i.i, align 8
  tail call void @_ZN19OpenColorIO_v2_4dev20validateGreaterEqualEPKcdd(ptr noundef nonnull @.str.10, double noundef %0, double noundef 0.000000e+00)
  %indvars.iv.next.i = add nuw nsw i64 %indvars.iv.i, 1
  %exitcond.not.i = icmp eq i64 %indvars.iv.next.i, 3
  br i1 %exitcond.not.i, label %_ZNK19OpenColorIO_v2_4dev9CDLOpData13ChannelParamsixEj.exit.i1, label %_ZNK19OpenColorIO_v2_4dev9CDLOpData13ChannelParamsixEj.exit.i, !llvm.loop !4

_ZNK19OpenColorIO_v2_4dev9CDLOpData13ChannelParamsixEj.exit.i1: ; preds = %_ZNK19OpenColorIO_v2_4dev9CDLOpData13ChannelParamsixEj.exit.i, %_ZNK19OpenColorIO_v2_4dev9CDLOpData13ChannelParamsixEj.exit.i1
  %indvars.iv.i2 = phi i64 [ %indvars.iv.next.i4, %_ZNK19OpenColorIO_v2_4dev9CDLOpData13ChannelParamsixEj.exit.i1 ], [ 0, %_ZNK19OpenColorIO_v2_4dev9CDLOpData13ChannelParamsixEj.exit.i ]
  %arrayidx.i.i3 = getelementptr inbounds [3 x double], ptr %powerParams, i64 0, i64 %indvars.iv.i2
  %1 = load double, ptr %arrayidx.i.i3, align 8
  tail call void @_ZN19OpenColorIO_v2_4dev19validateGreaterThanEPKcdd(ptr noundef nonnull @.str.11, double noundef %1, double noundef 0.000000e+00)
  %indvars.iv.next.i4 = add nuw nsw i64 %indvars.iv.i2, 1
  %exitcond.not.i5 = icmp eq i64 %indvars.iv.next.i4, 3
  br i1 %exitcond.not.i5, label %_ZN19OpenColorIO_v2_4dev21validateChannelParamsIXadL_ZNS_19validateGreaterThanEPKcddEEEEvS2_RKNS_9CDLOpData13ChannelParamsEd.exit, label %_ZNK19OpenColorIO_v2_4dev9CDLOpData13ChannelParamsixEj.exit.i1, !llvm.loop !6

_ZN19OpenColorIO_v2_4dev21validateChannelParamsIXadL_ZNS_19validateGreaterThanEPKcddEEEEvS2_RKNS_9CDLOpData13ChannelParamsEd.exit: ; preds = %_ZNK19OpenColorIO_v2_4dev9CDLOpData13ChannelParamsixEj.exit.i1
  tail call void @_ZN19OpenColorIO_v2_4dev20validateGreaterEqualEPKcdd(ptr noundef nonnull @.str.12, double noundef %saturation, double noundef 0.000000e+00)
  ret void
}